target datalayout = "e-m:e-p270:32:32-p271:32:32-p272:64:64-i64:64-i128:128-f80:128-n8:16:32:64-S128"
target triple = "x86_64-pc-linux-gnu"

%"class.gmx::BiasState" = type { %"class.gmx::CoordState", %"class.std::vector", %"class.std::vector.0", %"class.gmx::HistogramSize", [4 x i32], [4 x i32], ptr, %"class.std::vector.5", %"class.std::vector.7" }
%"class.gmx::CoordState" = type { [4 x double], i32, i32 }
%"class.std::vector" = type { %"struct.std::_Vector_base" }
%"struct.std::_Vector_base" = type { %"struct.std::_Vector_base<gmx::PointState, std::allocator<gmx::PointState>>::_Vector_impl" }
%"struct.std::_Vector_base<gmx::PointState, std::allocator<gmx::PointState>>::_Vector_impl" = type { %"struct.std::_Vector_base<gmx::PointState, std::allocator<gmx::PointState>>::_Vector_impl_data" }
%"struct.std::_Vector_base<gmx::PointState, std::allocator<gmx::PointState>>::_Vector_impl_data" = type { ptr, ptr, ptr }
%"class.std::vector.0" = type { %"struct.std::_Vector_base.1" }
%"struct.std::_Vector_base.1" = type { %"struct.std::_Vector_base<double, std::allocator<double>>::_Vector_impl" }
%"struct.std::_Vector_base<double, std::allocator<double>>::_Vector_impl" = type { %"struct.std::_Vector_base<double, std::allocator<double>>::_Vector_impl_data" }
%"struct.std::_Vector_base<double, std::allocator<double>>::_Vector_impl_data" = type { ptr, ptr, ptr }
%"class.gmx::HistogramSize" = type <{ i64, double, i8, [7 x i8], double, i8, [7 x i8], double, double, i8, [7 x i8] }>
%"class.std::vector.5" = type { %"struct.std::_Vector_base.6" }
%"struct.std::_Vector_base.6" = type { %"struct.std::_Vector_base<double, gmx::DefaultInitializationAllocator<double>>::_Vector_impl" }
%"struct.std::_Vector_base<double, gmx::DefaultInitializationAllocator<double>>::_Vector_impl" = type { %"struct.std::_Vector_base<double, gmx::DefaultInitializationAllocator<double>>::_Vector_impl_data" }
%"struct.std::_Vector_base<double, gmx::DefaultInitializationAllocator<double>>::_Vector_impl_data" = type { ptr, ptr, ptr }
%"class.std::vector.7" = type { %"struct.std::_Vector_base.8" }
%"struct.std::_Vector_base.8" = type { %"struct.std::_Vector_base<std::vector<double>, std::allocator<std::vector<double>>>::_Vector_impl" }
%"struct.std::_Vector_base<std::vector<double>, std::allocator<std::vector<double>>>::_Vector_impl" = type { %"struct.std::_Vector_base<std::vector<double>, std::allocator<std::vector<double>>>::_Vector_impl_data" }
%"struct.std::_Vector_base<std::vector<double>, std::allocator<std::vector<double>>>::_Vector_impl_data" = type { ptr, ptr, ptr }
%"class.gmx::PointState" = type { double, double, double, double, double, double, double, i64, double, double, double, double }
%class.anon.163 = type { i8 }

@.str.3 = private unnamed_addr constant [138 x i8] c"generated/home/dtcxzyw/WorkSpace/Projects/compilers/llvm-opt-benchmark/bench/gromacs/gromacs/src/gromacs/applied_forces/awh/biasstate.cpp\00", align 1
@.str.44 = private unnamed_addr constant [61 x i8] c"sharedCorrelationTensorTimeIntegral_[gridPointIndex][i] == 0\00", align 1
@.str.45 = private unnamed_addr constant [66 x i8] c"Correlation tensor time integral of unvisited points should be 0.\00", align 1
@"__PRETTY_FUNCTION__._ZZNK3gmx9BiasState33getSharedPointCorrelationIntegralEiENK3$_0clEv" = private unnamed_addr constant [105 x i8] c"auto gmx::BiasState::getSharedPointCorrelationIntegral(const int)::(anonymous class)::operator()() const\00", align 1

; Function Attrs: inlinehint mustprogress uwtable
define internal void @"_ZZNK3gmx9BiasState33getSharedPointCorrelationIntegralEiENK3$_0clEv"(ptr noundef nonnull align 1 dereferenceable(1) %0) #7 align 2 {
  %2 = alloca ptr, align 8
  store ptr %0, ptr %2, align 8, !tbaa !72
  call void @_ZN3gmx8internal13assertHandlerEPKcS2_S2_S2_i(ptr noundef @.str.44, ptr noundef @.str.45, ptr noundef @"__PRETTY_FUNCTION__._ZZNK3gmx9BiasState33getSharedPointCorrelationIntegralEiENK3$_0clEv", ptr noundef @.str.3, i32 noundef 1744) #29
  unreachable
}

; Function Attrs: mustprogress nounwind uwtable
define linkonce_odr noundef nonnull align 8 dereferenceable(8) ptr @_ZNKSt6vectorIdSaIdEEixEm(ptr noundef nonnull align 8 dereferenceable(24) %0, i64 noundef %1) #2 comdat align 2 {
  %3 = alloca ptr, align 8
  %4 = alloca i64, align 8
  store ptr %0, ptr %3, align 8, !tbaa !251
  store i64 %1, ptr %4, align 8, !tbaa !9
  %5 = load ptr, ptr %3, align 8
  %6 = getelementptr inbounds nuw %"struct.std::_Vector_base.1", ptr %5, i32 0, i32 0
  %7 = getelementptr inbounds nuw %"struct.std::_Vector_base<double, std::allocator<double>>::_Vector_impl_data", ptr %6, i32 0, i32 0
  %8 = load ptr, ptr %7, align 8, !tbaa !253
  %9 = load i64, ptr %4, align 8, !tbaa !9
  %10 = getelementptr inbounds nuw double, ptr %8, i64 %9
  ret ptr %10
}

; Function Attrs: mustprogress nounwind uwtable
define linkonce_odr noundef i64 @_ZNKSt6vectorIdSaIdEE4sizeEv(ptr noundef nonnull align 8 dereferenceable(24) %0) #2 comdat align 2 {
  %2 = alloca ptr, align 8
  store ptr %0, ptr %2, align 8, !tbaa !251
  %3 = load ptr, ptr %2, align 8
  %4 = getelementptr inbounds nuw %"struct.std::_Vector_base.1", ptr %3, i32 0, i32 0
  %5 = getelementptr inbounds nuw %"struct.std::_Vector_base<double, std::allocator<double>>::_Vector_impl_data", ptr %4, i32 0, i32 1
  %6 = load ptr, ptr %5, align 8, !tbaa !255
  %7 = getelementptr inbounds nuw %"struct.std::_Vector_base.1", ptr %3, i32 0, i32 0
  %8 = getelementptr inbounds nuw %"struct.std::_Vector_base<double, std::allocator<double>>::_Vector_impl_data", ptr %7, i32 0, i32 0
  %9 = load ptr, ptr %8, align 8, !tbaa !253
  %10 = ptrtoint ptr %6 to i64
  %11 = ptrtoint ptr %9 to i64
  %12 = sub i64 %10, %11
  %13 = sdiv exact i64 %12, 8
  ret i64 %13
}

; Function Attrs: mustprogress nounwind uwtable
define linkonce_odr noundef nonnull align 8 dereferenceable(24) ptr @_ZNKSt6vectorIS_IdSaIdEESaIS1_EEixEm(ptr noundef nonnull align 8 dereferenceable(24) %0, i64 noundef %1) #2 comdat align 2 {
  %3 = alloca ptr, align 8
  %4 = alloca i64, align 8
  store ptr %0, ptr %3, align 8, !tbaa !682
  store i64 %1, ptr %4, align 8, !tbaa !9
  %5 = load ptr, ptr %3, align 8
  %6 = getelementptr inbounds nuw %"struct.std::_Vector_base.8", ptr %5, i32 0, i32 0
  %7 = getelementptr inbounds nuw %"struct.std::_Vector_base<std::vector<double>, std::allocator<std::vector<double>>>::_Vector_impl_data", ptr %6, i32 0, i32 0
  %8 = load ptr, ptr %7, align 8, !tbaa !684
  %9 = load i64, ptr %4, align 8, !tbaa !9
  %10 = getelementptr inbounds nuw %"class.std::vector.0", ptr %8, i64 %9
  ret ptr %10
}

; Function Attrs: mustprogress nounwind uwtable
define linkonce_odr noundef double @_ZNK3gmx10PointState12weightSumTotEv(ptr noundef nonnull align 8 dereferenceable(96) %0) #2 comdat align 2 {
  %2 = alloca ptr, align 8
  store ptr %0, ptr %2, align 8, !tbaa !21
  %3 = load ptr, ptr %2, align 8
  %4 = getelementptr inbounds nuw %"class.gmx::PointState", ptr %3, i32 0, i32 5
  %5 = load double, ptr %4, align 8, !tbaa !275
  ret double %5
}

; Function Attrs: mustprogress nounwind uwtable
define linkonce_odr noundef zeroext i1 @_ZNK3gmx10PointState14inTargetRegionEv(ptr noundef nonnull align 8 dereferenceable(96) %0) #2 comdat align 2 {
  %2 = alloca ptr, align 8
  store ptr %0, ptr %2, align 8, !tbaa !21
  %3 = load ptr, ptr %2, align 8
  %4 = getelementptr inbounds nuw %"class.gmx::PointState", ptr %3, i32 0, i32 2
  %5 = load double, ptr %4, align 8, !tbaa !22
  %6 = fcmp ogt double %5, 0.000000e+00
  ret i1 %6
}

; Function Attrs: mustprogress nounwind uwtable
define linkonce_odr noundef nonnull align 8 dereferenceable(96) ptr @_ZNKSt6vectorIN3gmx10PointStateESaIS1_EEixEm(ptr noundef nonnull align 8 dereferenceable(24) %0, i64 noundef %1) #2 comdat align 2 {
  %3 = alloca ptr, align 8
  %4 = alloca i64, align 8
  store ptr %0, ptr %3, align 8, !tbaa !15
  store i64 %1, ptr %4, align 8, !tbaa !9
  %5 = load ptr, ptr %3, align 8
  %6 = getelementptr inbounds nuw %"struct.std::_Vector_base", ptr %5, i32 0, i32 0
  %7 = getelementptr inbounds nuw %"struct.std::_Vector_base<gmx::PointState, std::allocator<gmx::PointState>>::_Vector_impl_data", ptr %6, i32 0, i32 0
  %8 = load ptr, ptr %7, align 8, !tbaa !20
  %9 = load i64, ptr %4, align 8, !tbaa !9
  %10 = getelementptr inbounds nuw %"class.gmx::PointState", ptr %8, i64 %9
  ret ptr %10
}

; Function Attrs: mustprogress uwtable
define noundef nonnull align 8 dereferenceable(24) ptr @_ZNK3gmx9BiasState33getSharedPointCorrelationIntegralEi(ptr noundef nonnull align 8 dereferenceable(240) %0, i32 noundef %1) #0 align 2 {
  %3 = alloca ptr, align 8
  %4 = alloca i32, align 4
  %5 = alloca i64, align 8
  %6 = alloca %class.anon.163, align 1
  store ptr %0, ptr %3, align 8, !tbaa !4
  store i32 %1, ptr %4, align 4, !tbaa !46
  %7 = load ptr, ptr %3, align 8
  %8 = getelementptr inbounds nuw %"class.gmx::BiasState", ptr %7, i32 0, i32 1
  %9 = load i32, ptr %4, align 4, !tbaa !46
  %10 = sext i32 %9 to i64
  %11 = call noundef nonnull align 8 dereferenceable(96) ptr @_ZNKSt6vectorIN3gmx10PointStateESaIS1_EEixEm(ptr noundef nonnull align 8 dereferenceable(24) %8, i64 noundef %10) #28
  %12 = call noundef zeroext i1 @_ZNK3gmx10PointState14inTargetRegionEv(ptr noundef nonnull align 8 dereferenceable(96) %11)
  br i1 %12, label %13, label %20

13:                                               ; preds = %2
  %14 = getelementptr inbounds nuw %"class.gmx::BiasState", ptr %7, i32 0, i32 1
  %15 = load i32, ptr %4, align 4, !tbaa !46
  %16 = sext i32 %15 to i64
  %17 = call noundef nonnull align 8 dereferenceable(96) ptr @_ZNKSt6vectorIN3gmx10PointStateESaIS1_EEixEm(ptr noundef nonnull align 8 dereferenceable(24) %14, i64 noundef %16) #28
  %18 = call noundef double @_ZNK3gmx10PointState12weightSumTotEv(ptr noundef nonnull align 8 dereferenceable(96) %17)
  %19 = fcmp ole double %18, 0.000000e+00
  br i1 %19, label %20, label %46

20:                                               ; preds = %13, %2
  call void @llvm.lifetime.start.p0(i64 8, ptr %5) #28
  store i64 0, ptr %5, align 8, !tbaa !9
  br label %21

21:                                               ; preds = %42, %20
  %22 = load i64, ptr %5, align 8, !tbaa !9
  %23 = getelementptr inbounds nuw %"class.gmx::BiasState", ptr %7, i32 0, i32 8
  %24 = load i32, ptr %4, align 4, !tbaa !46
  %25 = sext i32 %24 to i64
  %26 = call noundef nonnull align 8 dereferenceable(24) ptr @_ZNKSt6vectorIS_IdSaIdEESaIS1_EEixEm(ptr noundef nonnull align 8 dereferenceable(24) %23, i64 noundef %25) #28
  %27 = call noundef i64 @_ZNKSt6vectorIdSaIdEE4sizeEv(ptr noundef nonnull align 8 dereferenceable(24) %26) #28
  %28 = icmp ult i64 %22, %27
  br i1 %28, label %30, label %29

29:                                               ; preds = %21
  call void @llvm.lifetime.end.p0(i64 8, ptr %5) #28
  br label %45

30:                                               ; preds = %21
  %31 = getelementptr inbounds nuw %"class.gmx::BiasState", ptr %7, i32 0, i32 8
  %32 = load i32, ptr %4, align 4, !tbaa !46
  %33 = sext i32 %32 to i64
  %34 = call noundef nonnull align 8 dereferenceable(24) ptr @_ZNKSt6vectorIS_IdSaIdEESaIS1_EEixEm(ptr noundef nonnull align 8 dereferenceable(24) %31, i64 noundef %33) #28
  %35 = load i64, ptr %5, align 8, !tbaa !9
  %36 = call noundef nonnull align 8 dereferenceable(8) ptr @_ZNKSt6vectorIdSaIdEEixEm(ptr noundef nonnull align 8 dereferenceable(24) %34, i64 noundef %35) #28
  %37 = load double, ptr %36, align 8, !tbaa !39
  %38 = fcmp oeq double %37, 0.000000e+00
  call void @llvm.lifetime.start.p0(i64 1, ptr %6) #28
  br i1 %38, label %39, label %40

39:                                               ; preds = %30
  br label %41

40:                                               ; preds = %30
  call void @"_ZZNK3gmx9BiasState33getSharedPointCorrelationIntegralEiENK3$_0clEv"(ptr noundef nonnull align 1 dereferenceable(1) %6)
  br label %41

41:                                               ; preds = %40, %39
  call void @llvm.lifetime.end.p0(i64 1, ptr %6) #28
  br label %42

42:                                               ; preds = %41
  %43 = load i64, ptr %5, align 8, !tbaa !9
  %44 = add i64 %43, 1
  store i64 %44, ptr %5, align 8, !tbaa !9
  br label %21, !llvm.loop !250

45:                                               ; preds = %29
  br label %46

46:                                               ; preds = %45, %13
  %47 = getelementptr inbounds nuw %"class.gmx::BiasState", ptr %7, i32 0, i32 8
  %48 = load i32, ptr %4, align 4, !tbaa !46
  %49 = sext i32 %48 to i64
  %50 = call noundef nonnull align 8 dereferenceable(24) ptr @_ZNKSt6vectorIS_IdSaIdEESaIS1_EEixEm(ptr noundef nonnull align 8 dereferenceable(24) %47, i64 noundef %49) #28
  ret ptr %50
}