; Function Attrs: mustprogress uwtable
define noundef nonnull align 8 dereferenceable(24) ptr @_ZNK3gmx9BiasState33getSharedPointCorrelationIntegralEi(ptr noundef nonnull readonly align 8 captures(none) dereferenceable(240) %0, i32 noundef %1) local_unnamed_addr #3 align 2 {
  %3 = getelementptr inbounds nuw i8, ptr %0, i64 40
  %4 = sext i32 %1 to i64
  %5 = load ptr, ptr %3, align 8, !tbaa !10
  %6 = getelementptr inbounds nuw %"class.gmx::PointState", ptr %5, i64 %4
  %7 = getelementptr inbounds nuw i8, ptr %6, i64 16
  %8 = load double, ptr %7, align 8, !tbaa !11
  %9 = fcmp ogt double %8, 0.000000e+00
  br i1 %9, label %10, label %14

10:                                               ; preds = %2
  %11 = getelementptr inbounds nuw i8, ptr %6, i64 40
  %12 = load double, ptr %11, align 8, !tbaa !82
  %13 = fcmp ugt double %12, 0.000000e+00
  br i1 %13, label %..loopexit_crit_edge, label %14

..loopexit_crit_edge:                             ; preds = %10
  %.phi.trans.insert = getelementptr inbounds nuw i8, ptr %0, i64 216
  %.pre = load ptr, ptr %.phi.trans.insert, align 8, !tbaa !83
  br label %.loopexit

14:                                               ; preds = %10, %2
  %15 = getelementptr inbounds nuw i8, ptr %0, i64 216
  %16 = load ptr, ptr %15, align 8, !tbaa !83
  %17 = getelementptr inbounds nuw %"class.std::vector.0", ptr %16, i64 %4
  %18 = getelementptr inbounds nuw i8, ptr %17, i64 8
  %19 = load ptr, ptr %18, align 8, !tbaa !86
  %20 = load ptr, ptr %17, align 8, !tbaa !89
  %.not = icmp eq ptr %19, %20
  br i1 %.not, label %.loopexit, label %.lr.ph.preheader

.lr.ph.preheader:                                 ; preds = %14
  %21 = ptrtoint ptr %19 to i64
  %22 = ptrtoint ptr %20 to i64
  %23 = sub i64 %21, %22
  %24 = ashr exact i64 %23, 3
  %umax = tail call i64 @llvm.umax.i64(i64 %24, i64 1)
  br label %.lr.ph

25:                                               ; preds = %.lr.ph
  %26 = add nuw i64 %.08, 1
  %exitcond.not = icmp eq i64 %26, %umax
  br i1 %exitcond.not, label %.loopexit, label %.lr.ph, !llvm.loop !90

.lr.ph:                                           ; preds = %.lr.ph.preheader, %25
  %.08 = phi i64 [ %26, %25 ], [ 0, %.lr.ph.preheader ]
  %27 = getelementptr inbounds nuw double, ptr %20, i64 %.08
  %28 = load double, ptr %27, align 8, !tbaa !40
  %29 = fcmp oeq double %28, 0.000000e+00
  br i1 %29, label %25, label %30

30:                                               ; preds = %.lr.ph
  tail call void @_ZN3gmx8internal13assertHandlerEPKcS2_S2_S2_i(ptr noundef nonnull @.str.44, ptr noundef nonnull @.str.45, ptr noundef nonnull @"__PRETTY_FUNCTION__._ZZNK3gmx9BiasState33getSharedPointCorrelationIntegralEiENK3$_0clEv", ptr noundef nonnull @.str.3, i32 noundef 1744) #30
  unreachable

.loopexit:                                        ; preds = %25, %..loopexit_crit_edge, %14
  %31 = phi ptr [ %.pre, %..loopexit_crit_edge ], [ %16, %14 ], [ %16, %25 ]
  %32 = getelementptr inbounds nuw %"class.std::vector.0", ptr %31, i64 %4
  ret ptr %32
}